; Function Attrs: null_pointer_is_valid sspstrong uwtable
define internal i32 @dissect_mtp2_with_phdr(ptr noundef %0, ptr noundef %1, ptr noundef %2, ptr readnone captures(none) %3) #0 {
  %5 = getelementptr inbounds nuw i8, ptr %1, i64 88
  %6 = load ptr, ptr %5, align 8
  %7 = getelementptr inbounds nuw i8, ptr %6, i64 1
  %8 = load i8, ptr %7, align 1
  %9 = icmp eq i8 %8, 2
  %10 = icmp eq i8 %8, 1
  %11 = load i8, ptr @use_extended_sequence_numbers_default, align 1, !range !6
  %12 = trunc nuw i8 %11 to i1
  %.sink = select i1 %9, i1 %12, i1 %10
  tail call fastcc void @dissect_mtp2_common(ptr noundef %0, ptr noundef %1, ptr noundef %2, i1 noundef zeroext false, i1 noundef zeroext %.sink)
  %13 = tail call i32 @tvb_captured_length(ptr noundef %0)
  ret i32 %13
}